target datalayout = "e-m:e-p270:32:32-p271:32:32-p272:64:64-i64:64-i128:128-f80:128-n8:16:32:64-S128"
target triple = "x86_64-pc-linux-gnu"

%struct.WalWriteMethod = type { ptr, i32, i32, i8, ptr, i32 }
%struct.TarMethodData = type { %struct.WalWriteMethod, ptr, i32, ptr, ptr, ptr }
%struct.Walfile = type { ptr, i64, ptr }

; Function Attrs: nounwind uwtable
define internal i32 @tar_sync(ptr noundef %0) #0 {
  %2 = alloca i32, align 4
  %3 = alloca ptr, align 8
  %4 = alloca ptr, align 8
  %5 = alloca i32, align 4
  %6 = alloca i32, align 4
  store ptr %0, ptr %3, align 8
  call void @llvm.lifetime.start.p0(i64 8, ptr %4) #9
  %7 = load ptr, ptr %3, align 8
  %8 = getelementptr inbounds nuw %struct.Walfile, ptr %7, i32 0, i32 0
  %9 = load ptr, ptr %8, align 8
  store ptr %9, ptr %4, align 8
  call void @llvm.lifetime.start.p0(i64 4, ptr %5) #9
  %10 = load ptr, ptr %3, align 8
  %11 = getelementptr inbounds nuw %struct.Walfile, ptr %10, i32 0, i32 0
  %12 = load ptr, ptr %11, align 8
  %13 = getelementptr inbounds nuw %struct.WalWriteMethod, ptr %12, i32 0, i32 4
  store ptr null, ptr %13, align 8
  %14 = load ptr, ptr %3, align 8
  %15 = getelementptr inbounds nuw %struct.Walfile, ptr %14, i32 0, i32 0
  %16 = load ptr, ptr %15, align 8
  %17 = getelementptr inbounds nuw %struct.WalWriteMethod, ptr %16, i32 0, i32 5
  store i32 0, ptr %17, align 8
  %18 = load ptr, ptr %3, align 8
  %19 = getelementptr inbounds nuw %struct.Walfile, ptr %18, i32 0, i32 0
  %20 = load ptr, ptr %19, align 8
  %21 = getelementptr inbounds nuw %struct.WalWriteMethod, ptr %20, i32 0, i32 3
  %22 = load i8, ptr %21, align 8, !range !4, !noundef !5
  %23 = trunc i8 %22 to i1
  br i1 %23, label %25, label %24

24:                                               ; preds = %1
  store i32 0, ptr %2, align 4
  store i32 1, ptr %6, align 4
  br label %49

25:                                               ; preds = %1
  %26 = load ptr, ptr %3, align 8
  %27 = getelementptr inbounds nuw %struct.Walfile, ptr %26, i32 0, i32 0
  %28 = load ptr, ptr %27, align 8
  %29 = getelementptr inbounds nuw %struct.WalWriteMethod, ptr %28, i32 0, i32 1
  %30 = load i32, ptr %29, align 8
  %31 = icmp ne i32 %30, 0
  br i1 %31, label %32, label %33

32:                                               ; preds = %25
  store i32 0, ptr %2, align 4
  store i32 1, ptr %6, align 4
  br label %49

33:                                               ; preds = %25
  %34 = load ptr, ptr %4, align 8
  %35 = getelementptr inbounds nuw %struct.TarMethodData, ptr %34, i32 0, i32 2
  %36 = load i32, ptr %35, align 8
  %37 = call i32 @fsync(i32 noundef %36)
  store i32 %37, ptr %5, align 4
  %38 = load i32, ptr %5, align 4
  %39 = icmp slt i32 %38, 0
  br i1 %39, label %40, label %47

40:                                               ; preds = %33
  %41 = call ptr @__errno_location() #11
  %42 = load i32, ptr %41, align 4
  %43 = load ptr, ptr %3, align 8
  %44 = getelementptr inbounds nuw %struct.Walfile, ptr %43, i32 0, i32 0
  %45 = load ptr, ptr %44, align 8
  %46 = getelementptr inbounds nuw %struct.WalWriteMethod, ptr %45, i32 0, i32 5
  store i32 %42, ptr %46, align 8
  br label %47

47:                                               ; preds = %40, %33
  %48 = load i32, ptr %5, align 4
  store i32 %48, ptr %2, align 4
  store i32 1, ptr %6, align 4
  br label %49

49:                                               ; preds = %47, %32, %24
  call void @llvm.lifetime.end.p0(i64 4, ptr %5) #9
  call void @llvm.lifetime.end.p0(i64 8, ptr %4) #9
  %50 = load i32, ptr %2, align 4
  ret i32 %50
}