; Function Attrs: nounwind uwtable
define internal i32 @tar_sync(ptr noundef readonly captures(none) %0) #0 {
  %2 = load ptr, ptr %0, align 8
  %3 = getelementptr inbounds nuw i8, ptr %2, i64 24
  store ptr null, ptr %3, align 8
  %4 = load ptr, ptr %0, align 8
  %5 = getelementptr inbounds nuw i8, ptr %4, i64 32
  store i32 0, ptr %5, align 8
  %6 = load ptr, ptr %0, align 8
  %7 = getelementptr inbounds nuw i8, ptr %6, i64 16
  %8 = load i8, ptr %7, align 8, !range !4, !noundef !5
  %9 = trunc nuw i8 %8 to i1
  br i1 %9, label %10, label %23

10:                                               ; preds = %1
  %11 = getelementptr inbounds nuw i8, ptr %6, i64 8
  %12 = load i32, ptr %11, align 8
  %.not = icmp eq i32 %12, 0
  br i1 %.not, label %13, label %23

13:                                               ; preds = %10
  %14 = getelementptr inbounds nuw i8, ptr %2, i64 48
  %15 = load i32, ptr %14, align 8
  %16 = tail call i32 @fsync(i32 noundef %15) #12
  %17 = icmp slt i32 %16, 0
  br i1 %17, label %18, label %23

18:                                               ; preds = %13
  %19 = tail call ptr @__errno_location() #14
  %20 = load i32, ptr %19, align 4
  %21 = load ptr, ptr %0, align 8
  %22 = getelementptr inbounds nuw i8, ptr %21, i64 32
  store i32 %20, ptr %22, align 8
  br label %23

23:                                               ; preds = %13, %18, %10, %1
  %.0 = phi i32 [ 0, %1 ], [ 0, %10 ], [ %16, %18 ], [ %16, %13 ]
  ret i32 %.0
}